Certificate:
    Data:
        Version: 3 (0x2)
        Serial Number: 336 (0x150)
    Signature Algorithm: sha1WithRSAEncryption
        Issuer: C=UA, DC=grid, O=BITP, OU=Education, CN=CAEdu
        Validity
            Not Before: Oct 27 10:26:17 2020 GMT
            Not After : Oct 27 10:26:17 2021 GMT
        Subject: C=UA, O=BITP, OU=Education, CN=Dmytro Kruhlyi
        Subject Public Key Info:
            Public Key Algorithm: rsaEncryption
                Public-Key: (2048 bit)
                Modulus:
                    00:c6:db:8a:af:c3:eb:e9:de:ae:6a:9e:aa:6b:ca:
                    ee:bf:aa:71:b3:17:6b:71:17:4f:96:d2:f5:c4:18:
                    94:99:7c:dc:18:49:41:d9:15:f0:77:2d:7d:ca:b0:
                    33:26:46:b3:8d:77:c5:ec:6c:29:13:2c:72:cb:50:
                    62:01:e7:87:99:6c:76:9b:52:40:3f:30:e7:8c:c7:
                    88:09:18:2f:d3:f3:11:99:74:59:1b:69:e3:bb:6b:
                    4f:e6:1d:23:81:82:0b:3b:ef:43:fc:a5:3b:4c:95:
                    94:df:1a:db:3e:4e:a8:b5:e2:84:1c:8d:5a:10:82:
                    5f:14:45:27:e8:ba:0d:22:9e:b4:b4:d6:f3:09:09:
                    b0:e8:b7:e6:6b:35:b1:d3:51:9c:f8:5f:a3:19:eb:
                    88:eb:61:da:04:a0:8f:d7:dd:1c:7f:ef:d6:2e:87:
                    c1:3d:9f:8c:b2:f3:41:d4:1a:08:4a:8a:c7:c8:c3:
                    57:04:28:fb:99:56:50:4c:c2:6d:62:3a:a2:5c:e0:
                    41:77:e1:13:b0:8d:d1:26:f4:a5:f6:1d:5c:f6:b1:
                    4e:33:14:8d:98:c6:64:dc:63:f2:21:e0:e4:6c:0b:
                    46:1f:41:0e:2d:17:f8:83:73:49:36:75:b5:08:0f:
                    38:f5:fb:91:16:7b:e4:bd:85:06:dd:b6:83:c8:70:
                    da:29
                Exponent: 65537 (0x10001)
        X509v3 extensions:
            Netscape Cert Type: 
                SSL Client, SSL Server, S/MIME, Object Signing
    Signature Algorithm: sha1WithRSAEncryption
         83:3e:67:00:c8:0f:75:b0:96:bf:28:88:33:b0:f1:e8:a1:22:
         84:fd:71:98:96:e1:c6:07:cb:1d:8a:c5:ce:89:51:7a:51:b2:
         e7:21:22:89:55:8e:06:6d:2a:08:b1:05:64:07:c9:54:96:ad:
         a1:d0:0c:a8:34:dc:ca:5a:4d:2c:24:e2:e7:f1:06:34:4c:61:
         70:bc:1c:43:2e:c3:27:75:46:9f:6e:7c:f4:9c:fc:f2:e7:38:
         15:63:a8:5b:91:ce:20:b1:5b:68:75:cb:fc:15:70:ee:f0:97:
         6d:23:84:20:35:1e:67:4a:e4:53:d6:50:05:8c:28:f8:97:c5:
         4d:b5:fe:49:aa:c7:59:2f:1b:32:b2:26:a6:23:7b:da:83:07:
         d3:c9:98:67:e0:ba:84:d1:b3:18:34:16:b6:c7:72:cf:62:bb:
         d5:fc:e4:29:55:31:34:85:20:9f:47:18:0a:4c:a9:21:91:55:
         e3:66:72:c8:d5:29:10:2d:b0:b0:39:2c:f1:7c:b4:bc:89:4c:
         c8:62:e2:68:b1:4b:bc:56:e8:54:5c:63:fe:5f:c3:88:f1:aa:
         0b:fa:13:82:2d:4b:39:49:da:05:3e:78:69:ab:c9:0b:32:64:
         0c:ef:ca:af:79:8d:a0:4e:d7:fe:31:fb:16:f6:4d:aa:76:9e:
         49:db:62:99:c2:17:55:cb:b8:99:c2:c4:fe:40:2b:9d:61:71:
         94:01:50:04:a2:9a:29:a1:30:e4:ca:3e:48:ad:df:fb:f5:fa:
         29:ee:74:a1:59:b1:64:e1:a5:e3:83:cb:9c:a4:80:5a:d3:b7:
         3a:bd:f0:41:6f:ac:fb:5e:9b:50:de:d8:72:8c:a5:38:de:4b:
         93:50:d8:ea:4c:eb:56:f3:80:79:b0:06:c4:f0:75:d1:e2:22:
         60:e1:20:d9:c3:6d:26:5c:12:53:01:e7:34:c5:2e:9d:bb:b6:
         30:02:a0:34:21:7b:52:3f:27:13:2e:c8:ad:4d:48:66:3c:74:
         09:7a:3e:a2:31:3b:3f:a5:66:d2:63:10:c0:9a:a0:dc:b4:58:
         54:ff:ac:fe:83:89:50:06:82:50:4e:f5:6e:5e:f8:4b:cd:1b:
         7e:88:94:2c:bc:59:94:45:49:c9:74:da:bc:e8:c8:90:8b:b9:
         12:1b:48:f6:a5:17:2c:e3:3e:a5:16:c5:98:97:2a:cb:1a:c5:
         52:4c:d7:aa:79:b0:7b:6e:ea:41:0f:cc:06:4e:4c:8c:ff:d1:
         f3:d0:8c:57:85:df:9c:6c:78:dc:63:8d:46:b2:b6:53:80:0f:
         31:10:f2:dd:3b:99:08:16:25:16:bf:53:31:a6:24:c4:d7:c4:
         d1:be:e3:c5:71:29:9a:4e
-----BEGIN CERTIFICATE-----
MIIEMDCCAhigAwIBAgICAVAwDQYJKoZIhvcNAQEFBQAwVjELMAkGA1UEBhMCVUEx
FDASBgoJkiaJk/IsZAEZFgRncmlkMQ0wCwYDVQQKEwRCSVRQMRIwEAYDVQQLEwlF
ZHVjYXRpb24xDjAMBgNVBAMTBUNBRWR1MB4XDTIwMTAyNzEwMjYxN1oXDTIxMTAy
NzEwMjYxN1owSTELMAkGA1UEBhMCVUExDTALBgNVBAoTBEJJVFAxEjAQBgNVBAsT
CUVkdWNhdGlvbjEXMBUGA1UEAxMORG15dHJvIEtydWhseWkwggEiMA0GCSqGSIb3
DQEBAQUAA4IBDwAwggEKAoIBAQDG24qvw+vp3q5qnqpryu6/qnGzF2txF0+W0vXE
GJSZfNwYSUHZFfB3LX3KsDMmRrONd8XsbCkTLHLLUGIB54eZbHabUkA/MOeMx4gJ
GC/T8xGZdFkbaeO7a0/mHSOBggs770P8pTtMlZTfGts+Tqi14oQcjVoQgl8URSfo
ug0inrS01vMJCbDot+ZrNbHTUZz4X6MZ64jrYdoEoI/X3Rx/79Yuh8E9n4yy80HU
GghKisfIw1cEKPuZVlBMwm1iOqJc4EF34ROwjdEm9KX2HVz2sU4zFI2YxmTcY/Ih
4ORsC0YfQQ4tF/iDc0k2dbUIDzj1+5EWe+S9hQbdtoPIcNopAgMBAAGjFTATMBEG
CWCGSAGG+EIBAQQEAwIE8DANBgkqhkiG9w0BAQUFAAOCAgEAgz5nAMgPdbCWvyiI
M7Dx6KEihP1xmJbhxgfLHYrFzolRelGy5yEiiVWOBm0qCLEFZAfJVJatodAMqDTc
ylpNLCTi5/EGNExhcLwcQy7DJ3VGn2589Jz88uc4FWOoW5HOILFbaHXL/BVw7vCX
bSOEIDUeZ0rkU9ZQBYwo+JfFTbX+SarHWS8bMrImpiN72oMH08mYZ+C6hNGzGDQW
tsdyz2K71fzkKVUxNIUgn0cYCkypIZFV42ZyyNUpEC2wsDks8Xy0vIlMyGLiaLFL
vFboVFxj/l/DiPGqC/oTgi1LOUnaBT54aavJCzJkDO/Kr3mNoE7X/jH7FvZNqnae
SdtimcIXVcu4mcLE/kArnWFxlAFQBKKaKaEw5Mo+SK3f+/X6Ke50oVmxZOGl44PL
nKSAWtO3Or3wQW+s+16bUN7YcoylON5Lk1DY6kzrVvOAebAGxPB10eIiYOEg2cNt
JlwSUwHnNMUunbu2MAKgNCF7Uj8nEy7IrU1IZjx0CXo+ojE7P6Vm0mMQwJqg3LRY
VP+s/oOJUAaCUE71bl74S80bfoiULLxZlEVJyXTavOjIkIu5EhtI9qUXLOM+pRbF
mJcqyxrFUkzXqnmwe27qQQ/MBk5MjP/R89CMV4XfnGx43GONRrK2U4APMRDy3TuZ
CBYlFr9TMaYkxNfE0b7jxXEpmk4=
-----END CERTIFICATE-----
